; Function Attrs: null_pointer_is_valid sspstrong uwtable
define internal range(i32 -268435456, 268435456) i32 @dissect_xnap(ptr noundef %0, ptr noundef %1, ptr noundef %2, ptr readnone captures(none) %3) #0 {
  %5 = alloca %struct._asn1_ctx_t, align 8
  %6 = getelementptr inbounds nuw i8, ptr %1, i64 8
  %7 = load ptr, ptr %6, align 8
  tail call void @col_set_str(ptr noundef %7, i32 noundef 35, ptr noundef nonnull @.str.4219)
  %8 = load ptr, ptr %6, align 8
  tail call void @col_clear_fence(ptr noundef %8, i32 noundef 25)
  %9 = load ptr, ptr %6, align 8
  tail call void @col_clear(ptr noundef %9, i32 noundef 25)
  %10 = load i32, ptr @proto_xnap, align 4
  %11 = tail call ptr @proto_tree_add_item(ptr noundef %2, i32 noundef %10, ptr noundef %0, i32 noundef 0, i32 noundef -1, i32 noundef 0)
  %12 = load i32, ptr @ett_xnap, align 4
  %13 = tail call ptr @proto_item_add_subtree(ptr noundef %11, i32 noundef %12)
  %14 = getelementptr inbounds nuw i8, ptr %1, i64 408
  %15 = load ptr, ptr %14, align 8
  %16 = load i32, ptr @proto_xnap, align 4
  %17 = tail call ptr @p_get_proto_data(ptr noundef %15, ptr noundef %1, i32 noundef %16, i32 noundef 0)
  %.not.i = icmp eq ptr %17, null
  br i1 %.not.i, label %18, label %xnap_get_private_data.exit

18:                                               ; preds = %4
  %19 = load ptr, ptr %14, align 8
  %20 = tail call noalias dereferenceable_or_null(24) ptr @wmem_alloc0(ptr noundef %19, i64 noundef 24) #10
  %21 = load ptr, ptr %14, align 8
  %22 = load i32, ptr @proto_xnap, align 4
  tail call void @p_add_proto_data(ptr noundef %21, ptr noundef %1, i32 noundef %22, i32 noundef 0, ptr noundef %20)
  br label %xnap_get_private_data.exit

xnap_get_private_data.exit:                       ; preds = %4, %18
  %.0.i = phi ptr [ %17, %4 ], [ %20, %18 ]
  %23 = tail call ptr @find_or_create_conversation(ptr noundef %1)
  %24 = load i32, ptr @proto_xnap, align 4
  %25 = tail call ptr @conversation_get_proto_data(ptr noundef %23, i32 noundef %24)
  store ptr %25, ptr %.0.i, align 8
  %.not = icmp eq ptr %25, null
  br i1 %.not, label %26, label %74

26:                                               ; preds = %xnap_get_private_data.exit
  %27 = tail call ptr @wmem_file_scope()
  %28 = tail call noalias dereferenceable_or_null(64) ptr @wmem_alloc0(ptr noundef %27, i64 noundef 64) #10
  store ptr %28, ptr %.0.i, align 8
  %29 = tail call ptr @wmem_file_scope()
  %30 = load ptr, ptr %.0.i, align 8
  %31 = getelementptr inbounds nuw i8, ptr %1, i64 208
  %32 = load i32, ptr %31, align 8
  %33 = getelementptr inbounds nuw i8, ptr %1, i64 212
  %34 = load i32, ptr %33, align 4
  %35 = getelementptr inbounds nuw i8, ptr %1, i64 216
  %36 = load ptr, ptr %35, align 8
  tail call void @llvm.memset.p0.i64(ptr noundef align 8 dereferenceable(24) %30, i8 0, i64 24, i1 false)
  store i32 %32, ptr %30, align 8
  %37 = icmp eq i32 %34, 0
  br i1 %37, label %copy_address_wmem.exit, label %38

38:                                               ; preds = %26
  %39 = sext i32 %34 to i64
  %40 = tail call ptr @wmem_memdup(ptr noundef %29, ptr noundef %36, i64 noundef %39) #11
  %41 = getelementptr inbounds nuw i8, ptr %30, i64 16
  store ptr %40, ptr %41, align 8
  %42 = getelementptr inbounds nuw i8, ptr %30, i64 8
  store ptr %40, ptr %42, align 8
  %43 = getelementptr inbounds nuw i8, ptr %30, i64 4
  store i32 %34, ptr %43, align 4
  br label %copy_address_wmem.exit

copy_address_wmem.exit:                           ; preds = %26, %38
  %44 = getelementptr inbounds nuw i8, ptr %1, i64 284
  %45 = load i32, ptr %44, align 4
  %46 = load ptr, ptr %.0.i, align 8
  %47 = getelementptr inbounds nuw i8, ptr %46, i64 24
  store i32 %45, ptr %47, align 8
  %48 = load ptr, ptr %.0.i, align 8
  %49 = getelementptr inbounds nuw i8, ptr %48, i64 28
  store i32 -1, ptr %49, align 4
  %50 = tail call ptr @wmem_file_scope()
  %51 = load ptr, ptr %.0.i, align 8
  %52 = getelementptr inbounds nuw i8, ptr %51, i64 32
  %53 = getelementptr inbounds nuw i8, ptr %1, i64 232
  %54 = load i32, ptr %53, align 8
  %55 = getelementptr inbounds nuw i8, ptr %1, i64 236
  %56 = load i32, ptr %55, align 4
  %57 = getelementptr inbounds nuw i8, ptr %1, i64 240
  %58 = load ptr, ptr %57, align 8
  tail call void @llvm.memset.p0.i64(ptr noundef nonnull align 8 dereferenceable(24) %52, i8 0, i64 24, i1 false)
  store i32 %54, ptr %52, align 8
  %59 = icmp eq i32 %56, 0
  br i1 %59, label %copy_address_wmem.exit28, label %60

60:                                               ; preds = %copy_address_wmem.exit
  %61 = sext i32 %56 to i64
  %62 = tail call ptr @wmem_memdup(ptr noundef %50, ptr noundef %58, i64 noundef %61) #11
  %63 = getelementptr inbounds nuw i8, ptr %51, i64 48
  store ptr %62, ptr %63, align 8
  %64 = getelementptr inbounds nuw i8, ptr %51, i64 40
  store ptr %62, ptr %64, align 8
  %65 = getelementptr inbounds nuw i8, ptr %51, i64 36
  store i32 %56, ptr %65, align 4
  br label %copy_address_wmem.exit28

copy_address_wmem.exit28:                         ; preds = %copy_address_wmem.exit, %60
  %66 = getelementptr inbounds nuw i8, ptr %1, i64 288
  %67 = load i32, ptr %66, align 8
  %68 = load ptr, ptr %.0.i, align 8
  %69 = getelementptr inbounds nuw i8, ptr %68, i64 56
  store i32 %67, ptr %69, align 8
  %70 = load ptr, ptr %.0.i, align 8
  %71 = getelementptr inbounds nuw i8, ptr %70, i64 60
  store i32 -1, ptr %71, align 4
  %72 = load i32, ptr @proto_xnap, align 4
  %73 = load ptr, ptr %.0.i, align 8
  tail call void @conversation_add_proto_data(ptr noundef %23, i32 noundef %72, ptr noundef %73)
  br label %74

74:                                               ; preds = %copy_address_wmem.exit28, %xnap_get_private_data.exit
  call void @llvm.lifetime.start.p0(i64 208, ptr nonnull %5) #9
  call void @asn1_ctx_init(ptr noundef nonnull %5, i32 noundef 1, i1 noundef zeroext true, ptr noundef %1)
  %75 = load i32, ptr @hf_xnap_XnAP_PDU_PDU, align 4
  %76 = load i32, ptr @ett_xnap_XnAP_PDU, align 4
  %77 = call i32 @dissect_per_choice(ptr noundef %0, i32 noundef 0, ptr noundef nonnull %5, ptr noundef %13, i32 noundef %75, i32 noundef %76, ptr noundef nonnull @XnAP_PDU_choice, ptr noundef null)
  %78 = add i32 %77, 7
  %79 = ashr i32 %78, 3
  call void @llvm.lifetime.end.p0(i64 208, ptr nonnull %5) #9
  ret i32 %79
}